; Function Attrs: mustprogress uwtable
define hidden void @_ZN3smt12theory_array15set_prop_upwardEPNS_5enodeE(ptr noundef nonnull align 8 dereferenceable(444) %0, ptr noundef readonly captures(none) %1) unnamed_addr #4 align 2 {
  %3 = load ptr, ptr %1, align 8, !tbaa !595
  %4 = getelementptr inbounds nuw i8, ptr %3, i64 16
  %5 = load ptr, ptr %4, align 8, !tbaa !607
  %6 = getelementptr inbounds nuw i8, ptr %5, i64 24
  %7 = load ptr, ptr %6, align 8, !tbaa !596
  %.not.i.i.i.i = icmp eq ptr %7, null
  br i1 %.not.i.i.i.i, label %_ZNK3smt17theory_array_base8is_storeEPKNS_5enodeE.exit.thread, label %_ZNK3smt17theory_array_base8is_storeEPKNS_5enodeE.exit

_ZNK3smt17theory_array_base8is_storeEPKNS_5enodeE.exit: ; preds = %2
  %8 = getelementptr inbounds nuw i8, ptr %0, i64 8
  %9 = load i32, ptr %8, align 8, !tbaa !600
  %10 = load i32, ptr %7, align 8, !tbaa !601
  %11 = icmp eq i32 %10, %9
  %12 = getelementptr inbounds nuw i8, ptr %7, i64 4
  %13 = load i32, ptr %12, align 4
  %14 = icmp eq i32 %13, 0
  %15 = select i1 %11, i1 %14, i1 false
  br i1 %15, label %16, label %_ZNK3smt17theory_array_base8is_storeEPKNS_5enodeE.exit.thread

16:                                               ; preds = %_ZNK3smt17theory_array_base8is_storeEPKNS_5enodeE.exit
  %17 = getelementptr inbounds nuw i8, ptr %1, i64 112
  %18 = load ptr, ptr %17, align 8, !tbaa !570
  %19 = tail call noundef i32 @_ZNK3smt5enode10get_th_varEi(ptr noundef nonnull align 8 dereferenceable(112) %18, i32 noundef %9)
  %20 = load ptr, ptr %0, align 8, !tbaa !3
  %21 = getelementptr inbounds nuw i8, ptr %20, i64 392
  %22 = load ptr, ptr %21, align 8
  tail call void %22(ptr noundef nonnull align 8 dereferenceable(444) %0, i32 noundef %19)
  br label %_ZNK3smt17theory_array_base8is_storeEPKNS_5enodeE.exit.thread

_ZNK3smt17theory_array_base8is_storeEPKNS_5enodeE.exit.thread: ; preds = %2, %16, %_ZNK3smt17theory_array_base8is_storeEPKNS_5enodeE.exit
  ret void
}